; Function Attrs: mustprogress nofree norecurse nosync nounwind willreturn memory(argmem: readwrite) uwtable
define dso_local void @resp_add_chunked_iov(ptr noundef captures(none) initializes((112, 116), (117, 118)) %0, ptr noundef %1, i32 noundef %2) local_unnamed_addr #15 {
  %4 = getelementptr inbounds nuw i8, ptr %0, i64 116
  %5 = load i8, ptr %4, align 4, !tbaa !162
  %6 = getelementptr inbounds nuw i8, ptr %0, i64 117
  store i8 %5, ptr %6, align 1, !tbaa !163
  %7 = getelementptr inbounds nuw i8, ptr %0, i64 112
  store i32 %2, ptr %7, align 8, !tbaa !164
  %8 = getelementptr inbounds nuw i8, ptr %0, i64 48
  %9 = zext i8 %5 to i64
  %10 = getelementptr inbounds nuw [4 x %struct.iovec], ptr %8, i64 0, i64 %9
  store ptr %1, ptr %10, align 8, !tbaa !122
  %11 = sext i32 %2 to i64
  %12 = getelementptr inbounds nuw i8, ptr %10, i64 8
  store i64 %11, ptr %12, align 8, !tbaa !124
  %13 = add i8 %5, 1
  store i8 %13, ptr %4, align 4, !tbaa !162
  %14 = getelementptr inbounds nuw i8, ptr %0, i64 20
  %15 = load i32, ptr %14, align 4, !tbaa !126
  %16 = add nsw i32 %15, %2
  store i32 %16, ptr %14, align 4, !tbaa !126
  ret void
}